; Function Attrs: mustprogress uwtable
define noundef zeroext i1 @_ZNK32pxrInternal_v0_24__pxrReserved__20UsdSkelSkinningQuery18GetBlendShapeOrderEPNS_7VtArrayINS_7TfTokenEEE(ptr noundef nonnull align 8 dereferenceable(400) %0, ptr noundef %1) local_unnamed_addr #0 align 2 {
  %3 = alloca %"class.pxrInternal_v0_24__pxrReserved__::TfCallContext", align 8
  %.not = icmp eq ptr %1, null
  br i1 %.not, label %11, label %4

4:                                                ; preds = %2
  %5 = getelementptr inbounds i8, ptr %0, i64 392
  %6 = load i8, ptr %5, align 8
  %7 = trunc i8 %6 to i1
  br i1 %7, label %8, label %16

8:                                                ; preds = %4
  %9 = getelementptr inbounds nuw i8, ptr %0, i64 352
  %10 = tail call noundef nonnull align 8 dereferenceable(40) ptr @_ZN32pxrInternal_v0_24__pxrReserved__7VtArrayINS_7TfTokenEEaSERKS2_(ptr noundef nonnull align 8 dereferenceable(40) %1, ptr noundef nonnull align 8 dereferenceable(40) %9)
  br label %16

11:                                               ; preds = %2
  store ptr @.str.2, ptr %3, align 8
  %12 = getelementptr inbounds nuw i8, ptr %3, i64 8
  store ptr @__func__._ZNK32pxrInternal_v0_24__pxrReserved__20UsdSkelSkinningQuery18GetBlendShapeOrderEPNS_7VtArrayINS_7TfTokenEEE, ptr %12, align 8
  %13 = getelementptr inbounds nuw i8, ptr %3, i64 16
  store i64 191, ptr %13, align 8
  %14 = getelementptr inbounds nuw i8, ptr %3, i64 24
  store ptr @__PRETTY_FUNCTION__._ZNK32pxrInternal_v0_24__pxrReserved__20UsdSkelSkinningQuery18GetBlendShapeOrderEPNS_7VtArrayINS_7TfTokenEEE, ptr %14, align 8
  %15 = getelementptr inbounds nuw i8, ptr %3, i64 32
  store i8 0, ptr %15, align 8
  call void (ptr, i32, ptr, ...) @_ZN32pxrInternal_v0_24__pxrReserved__18Tf_PostErrorHelperERKNS_13TfCallContextENS_16TfDiagnosticTypeEPKcz(ptr noundef nonnull align 8 dereferenceable(33) %3, i32 noundef 1, ptr noundef nonnull @.str.19)
  br label %16

16:                                               ; preds = %11, %4, %8
  %.0 = phi i1 [ true, %8 ], [ false, %4 ], [ false, %11 ]
  ret i1 %.0
}